target datalayout = "e-m:e-p270:32:32-p271:32:32-p272:64:64-i64:64-i128:128-f80:128-n8:16:32:64-S128"
target triple = "x86_64-pc-linux-gnu"

; Function Attrs: nounwind uwtable
define internal i64 @reverse_string(ptr noundef %0) #0 {
  %2 = alloca ptr, align 8
  %3 = alloca i64, align 8
  %4 = alloca i64, align 8
  %5 = alloca i8, align 1
  store ptr %0, ptr %2, align 8, !tbaa !8
  call void @llvm.lifetime.start.p0(i64 8, ptr %3) #11
  %6 = load ptr, ptr %2, align 8, !tbaa !8
  %7 = call i64 @strlen(ptr noundef %6) #12
  store i64 %7, ptr %3, align 8, !tbaa !19
  call void @llvm.lifetime.start.p0(i64 8, ptr %4) #11
  store i64 0, ptr %4, align 8, !tbaa !19
  br label %8

8:                                                ; preds = %35, %1
  %9 = load i64, ptr %4, align 8, !tbaa !19
  %10 = load i64, ptr %3, align 8, !tbaa !19
  %11 = udiv i64 %10, 2
  %12 = icmp ult i64 %9, %11
  br i1 %12, label %13, label %38

13:                                               ; preds = %8
  call void @llvm.lifetime.start.p0(i64 1, ptr %5) #11
  %14 = load ptr, ptr %2, align 8, !tbaa !8
  %15 = load i64, ptr %4, align 8, !tbaa !19
  %16 = getelementptr inbounds nuw i8, ptr %14, i64 %15
  %17 = load i8, ptr %16, align 1, !tbaa !18
  store i8 %17, ptr %5, align 1, !tbaa !18
  %18 = load ptr, ptr %2, align 8, !tbaa !8
  %19 = load i64, ptr %3, align 8, !tbaa !19
  %20 = load i64, ptr %4, align 8, !tbaa !19
  %21 = sub i64 %19, %20
  %22 = sub i64 %21, 1
  %23 = getelementptr inbounds nuw i8, ptr %18, i64 %22
  %24 = load i8, ptr %23, align 1, !tbaa !18
  %25 = load ptr, ptr %2, align 8, !tbaa !8
  %26 = load i64, ptr %4, align 8, !tbaa !19
  %27 = getelementptr inbounds nuw i8, ptr %25, i64 %26
  store i8 %24, ptr %27, align 1, !tbaa !18
  %28 = load i8, ptr %5, align 1, !tbaa !18
  %29 = load ptr, ptr %2, align 8, !tbaa !8
  %30 = load i64, ptr %3, align 8, !tbaa !19
  %31 = load i64, ptr %4, align 8, !tbaa !19
  %32 = sub i64 %30, %31
  %33 = sub i64 %32, 1
  %34 = getelementptr inbounds nuw i8, ptr %29, i64 %33
  store i8 %28, ptr %34, align 1, !tbaa !18
  call void @llvm.lifetime.end.p0(i64 1, ptr %5) #11
  br label %35

35:                                               ; preds = %13
  %36 = load i64, ptr %4, align 8, !tbaa !19
  %37 = add i64 %36, 1
  store i64 %37, ptr %4, align 8, !tbaa !19
  br label %8

38:                                               ; preds = %8
  %39 = load i64, ptr %3, align 8, !tbaa !19
  call void @llvm.lifetime.end.p0(i64 8, ptr %4) #11
  call void @llvm.lifetime.end.p0(i64 8, ptr %3) #11
  ret i64 %39
}