; Function Attrs: nofree nounwind memory(argmem: readwrite) uwtable
define internal fastcc void @reverse_string(ptr noundef nonnull captures(none) %0) unnamed_addr #5 {
  %2 = tail call i64 @strlen(ptr noundef nonnull dereferenceable(1) %0) #15
  %3 = lshr i64 %2, 1
  %.not = icmp ult i64 %2, 2
  br i1 %.not, label %._crit_edge, label %.lr.ph

.lr.ph:                                           ; preds = %1
  %4 = getelementptr i8, ptr %0, i64 %2
  br label %5

5:                                                ; preds = %.lr.ph, %5
  %.015 = phi i64 [ 0, %.lr.ph ], [ %11, %5 ]
  %6 = getelementptr inbounds nuw i8, ptr %0, i64 %.015
  %7 = load i8, ptr %6, align 1, !tbaa !10
  %8 = xor i64 %.015, -1
  %9 = getelementptr i8, ptr %4, i64 %8
  %10 = load i8, ptr %9, align 1, !tbaa !10
  store i8 %10, ptr %6, align 1, !tbaa !10
  store i8 %7, ptr %9, align 1, !tbaa !10
  %11 = add nuw nsw i64 %.015, 1
  %exitcond.not = icmp eq i64 %11, %3
  br i1 %exitcond.not, label %._crit_edge, label %5

._crit_edge:                                      ; preds = %5, %1
  ret void
}